; Function Attrs: uwtable
define noundef ptr @_ZN11OpenImageIO6v3_1_06Plugin6getsymEPvPKcb(ptr noundef %0, ptr noundef %1, i1 noundef zeroext %2) local_unnamed_addr #6 personality ptr @__gxx_personality_v0 {
  %4 = tail call noundef i32 @pthread_mutex_lock(ptr noundef nonnull align 8 dereferenceable(40) @_ZN11OpenImageIO6v3_1_012_GLOBAL__N_112plugin_mutexE) #4
  %.not.i.i = icmp eq i32 %4, 0
  br i1 %.not.i.i, label %_ZNSt10lock_guardISt5mutexEC2ERS0_.exit, label %5

5:                                                ; preds = %3
  tail call void @_ZSt20__throw_system_errori(i32 noundef %4) #13
  unreachable

_ZNSt10lock_guardISt5mutexEC2ERS0_.exit:          ; preds = %3
  %6 = load i8, ptr @__tls_guard, align 1
  %7 = icmp eq i8 %6, 0
  br i1 %7, label %8, label %_ZTWN11OpenImageIO6v3_1_012_GLOBAL__N_110last_errorB5cxx11E.exit, !prof !3

8:                                                ; preds = %_ZNSt10lock_guardISt5mutexEC2ERS0_.exit
  store i8 1, ptr @__tls_guard, align 1
  %9 = tail call ptr @llvm.invariant.start.p0(i64 1, ptr nonnull @__tls_guard)
  store ptr getelementptr inbounds nuw (i8, ptr @_ZN11OpenImageIO6v3_1_012_GLOBAL__N_110last_errorB5cxx11E, i64 16), ptr @_ZN11OpenImageIO6v3_1_012_GLOBAL__N_110last_errorB5cxx11E, align 8, !tbaa !4
  store i64 0, ptr getelementptr inbounds nuw (i8, ptr @_ZN11OpenImageIO6v3_1_012_GLOBAL__N_110last_errorB5cxx11E, i64 8), align 8, !tbaa !10
  store i8 0, ptr getelementptr inbounds nuw (i8, ptr @_ZN11OpenImageIO6v3_1_012_GLOBAL__N_110last_errorB5cxx11E, i64 16), align 8, !tbaa !13
  %10 = tail call i32 @__cxa_thread_atexit(ptr nonnull @_ZNSt7__cxx1112basic_stringIcSt11char_traitsIcESaIcEED2Ev, ptr nonnull @_ZN11OpenImageIO6v3_1_012_GLOBAL__N_110last_errorB5cxx11E, ptr nonnull @__dso_handle) #4
  br label %_ZTWN11OpenImageIO6v3_1_012_GLOBAL__N_110last_errorB5cxx11E.exit

_ZTWN11OpenImageIO6v3_1_012_GLOBAL__N_110last_errorB5cxx11E.exit: ; preds = %_ZNSt10lock_guardISt5mutexEC2ERS0_.exit, %8
  %11 = tail call noundef nonnull align 8 ptr @llvm.threadlocal.address.p0(ptr align 8 @_ZN11OpenImageIO6v3_1_012_GLOBAL__N_110last_errorB5cxx11E)
  %12 = getelementptr inbounds nuw i8, ptr %11, i64 8
  store i64 0, ptr %12, align 8, !tbaa !10
  %13 = load ptr, ptr %11, align 8, !tbaa !14
  store i8 0, ptr %13, align 1, !tbaa !13
  %14 = tail call ptr @dlsym(ptr noundef %0, ptr noundef %1) #4
  %.not = icmp eq ptr %14, null
  %brmerge.not = and i1 %2, %.not
  br i1 %brmerge.not, label %15, label %_ZNSt7__cxx1112basic_stringIcSt11char_traitsIcESaIcEEaSEPKc.exit

15:                                               ; preds = %_ZTWN11OpenImageIO6v3_1_012_GLOBAL__N_110last_errorB5cxx11E.exit
  %16 = tail call ptr @dlerror() #4
  %17 = load i8, ptr @__tls_guard, align 1
  %18 = icmp eq i8 %17, 0
  br i1 %18, label %19, label %_ZTWN11OpenImageIO6v3_1_012_GLOBAL__N_110last_errorB5cxx11E.exit7, !prof !3

19:                                               ; preds = %15
  store i8 1, ptr @__tls_guard, align 1
  %20 = tail call ptr @llvm.invariant.start.p0(i64 1, ptr nonnull @__tls_guard)
  store ptr getelementptr inbounds nuw (i8, ptr @_ZN11OpenImageIO6v3_1_012_GLOBAL__N_110last_errorB5cxx11E, i64 16), ptr @_ZN11OpenImageIO6v3_1_012_GLOBAL__N_110last_errorB5cxx11E, align 8, !tbaa !4
  store i64 0, ptr getelementptr inbounds nuw (i8, ptr @_ZN11OpenImageIO6v3_1_012_GLOBAL__N_110last_errorB5cxx11E, i64 8), align 8, !tbaa !10
  store i8 0, ptr getelementptr inbounds nuw (i8, ptr @_ZN11OpenImageIO6v3_1_012_GLOBAL__N_110last_errorB5cxx11E, i64 16), align 8, !tbaa !13
  %21 = tail call i32 @__cxa_thread_atexit(ptr nonnull @_ZNSt7__cxx1112basic_stringIcSt11char_traitsIcESaIcEED2Ev, ptr nonnull @_ZN11OpenImageIO6v3_1_012_GLOBAL__N_110last_errorB5cxx11E, ptr nonnull @__dso_handle) #4
  br label %_ZTWN11OpenImageIO6v3_1_012_GLOBAL__N_110last_errorB5cxx11E.exit7

_ZTWN11OpenImageIO6v3_1_012_GLOBAL__N_110last_errorB5cxx11E.exit7: ; preds = %15, %19
  %22 = load i64, ptr %12, align 8, !tbaa !10
  %23 = tail call noundef i64 @strlen(ptr noundef nonnull dereferenceable(1) %16) #4
  %24 = invoke noundef nonnull align 8 dereferenceable(32) ptr @_ZNSt7__cxx1112basic_stringIcSt11char_traitsIcESaIcEE10_M_replaceEmmPKcm(ptr noundef nonnull align 8 dereferenceable(32) %11, i64 noundef 0, i64 noundef %22, ptr noundef nonnull %16, i64 noundef %23)
          to label %_ZNSt7__cxx1112basic_stringIcSt11char_traitsIcESaIcEEaSEPKc.exit unwind label %25

25:                                               ; preds = %_ZTWN11OpenImageIO6v3_1_012_GLOBAL__N_110last_errorB5cxx11E.exit7
  %26 = landingpad { ptr, i32 }
          cleanup
  %27 = tail call noundef i32 @pthread_mutex_unlock(ptr noundef nonnull align 8 dereferenceable(40) @_ZN11OpenImageIO6v3_1_012_GLOBAL__N_112plugin_mutexE) #4
  resume { ptr, i32 } %26

_ZNSt7__cxx1112basic_stringIcSt11char_traitsIcESaIcEEaSEPKc.exit: ; preds = %_ZTWN11OpenImageIO6v3_1_012_GLOBAL__N_110last_errorB5cxx11E.exit7, %_ZTWN11OpenImageIO6v3_1_012_GLOBAL__N_110last_errorB5cxx11E.exit
  %28 = tail call noundef i32 @pthread_mutex_unlock(ptr noundef nonnull align 8 dereferenceable(40) @_ZN11OpenImageIO6v3_1_012_GLOBAL__N_112plugin_mutexE) #4
  ret ptr %14
}